; ModuleID = '19/1530.c'
source_filename = "19/1530.c"
target datalayout = "e-m:e-p270:32:32-p271:32:32-p272:64:64-i64:64-f80:128-n8:16:32:64-S128"
target triple = "x86_64-pc-linux-gnu"

@maxw = dso_local constant i64 100, align 8
@maxL = dso_local constant i64 100, align 8
@n = common dso_local global i64 0, align 8
@.str = private unnamed_addr constant [3 x i8] c"%s\00", align 1
@word = common dso_local global [101 x [101 x i8]] zeroinitializer, align 16
@s = common dso_local global [101 x i8] zeroinitializer, align 16
@t = common dso_local global [101 x i8] zeroinitializer, align 16
@.str.1 = private unnamed_addr constant [2 x i8] c"\0A\00", align 1
@.str.2 = private unnamed_addr constant [2 x i8] c" \00", align 1

; Function Attrs: noinline nounwind uwtable
define dso_local i32 @main() #0 {
  %1 = alloca i32, align 4
  %2 = alloca i64, align 8
  store i32 0, i32* %1, align 4
  store i64 -1, i64* @n, align 8
  br label %3

3:                                                ; preds = %9, %0
  %4 = load i64, i64* @n, align 8
  %5 = add nsw i64 %4, 1
  store i64 %5, i64* @n, align 8
  %6 = getelementptr inbounds [101 x [101 x i8]], [101 x [101 x i8]]* @word, i64 0, i64 %5
  %7 = getelementptr inbounds [101 x i8], [101 x i8]* %6, i64 0, i64 0
  %8 = call i32 (i8*, ...) @__isoc99_scanf(i8* getelementptr inbounds ([3 x i8], [3 x i8]* @.str, i64 0, i64 0), i8* %7)
  br label %9

9:                                                ; preds = %3
  %10 = call i32 @getchar()
  %11 = icmp ne i32 %10, 10
  br i1 %11, label %3, label %12

12:                                               ; preds = %9
  %13 = call i32 (i8*, ...) @__isoc99_scanf(i8* getelementptr inbounds ([3 x i8], [3 x i8]* @.str, i64 0, i64 0), i8* getelementptr inbounds ([101 x i8], [101 x i8]* @s, i64 0, i64 0))
  %14 = call i32 (i8*, ...) @__isoc99_scanf(i8* getelementptr inbounds ([3 x i8], [3 x i8]* @.str, i64 0, i64 0), i8* getelementptr inbounds ([101 x i8], [101 x i8]* @t, i64 0, i64 0))
  store i64 0, i64* %2, align 8
  br label %15

15:                                               ; preds = %41, %12
  %16 = load i64, i64* %2, align 8
  %17 = load i64, i64* @n, align 8
  %18 = icmp sle i64 %16, %17
  br i1 %18, label %19, label %44

19:                                               ; preds = %15
  %20 = load i64, i64* %2, align 8
  %21 = getelementptr inbounds [101 x [101 x i8]], [101 x [101 x i8]]* @word, i64 0, i64 %20
  %22 = getelementptr inbounds [101 x i8], [101 x i8]* %21, i64 0, i64 0
  %23 = call i32 @strcmp(i8* getelementptr inbounds ([101 x i8], [101 x i8]* @s, i64 0, i64 0), i8* %22) #3
  %24 = icmp eq i32 %23, 0
  br i1 %24, label %25, label %27

25:                                               ; preds = %19
  %26 = call i32 (i8*, ...) @printf(i8* getelementptr inbounds ([3 x i8], [3 x i8]* @.str, i64 0, i64 0), i8* getelementptr inbounds ([101 x i8], [101 x i8]* @t, i64 0, i64 0))
  br label %32

27:                                               ; preds = %19
  %28 = load i64, i64* %2, align 8
  %29 = getelementptr inbounds [101 x [101 x i8]], [101 x [101 x i8]]* @word, i64 0, i64 %28
  %30 = getelementptr inbounds [101 x i8], [101 x i8]* %29, i64 0, i64 0
  %31 = call i32 (i8*, ...) @printf(i8* getelementptr inbounds ([3 x i8], [3 x i8]* @.str, i64 0, i64 0), i8* %30)
  br label %32

32:                                               ; preds = %27, %25
  %33 = load i64, i64* %2, align 8
  %34 = load i64, i64* @n, align 8
  %35 = icmp eq i64 %33, %34
  br i1 %35, label %36, label %38

36:                                               ; preds = %32
  %37 = call i32 (i8*, ...) @printf(i8* getelementptr inbounds ([2 x i8], [2 x i8]* @.str.1, i64 0, i64 0))
  br label %40

38:                                               ; preds = %32
  %39 = call i32 (i8*, ...) @printf(i8* getelementptr inbounds ([2 x i8], [2 x i8]* @.str.2, i64 0, i64 0))
  br label %40

40:                                               ; preds = %38, %36
  br label %41

41:                                               ; preds = %40
  %42 = load i64, i64* %2, align 8
  %43 = add nsw i64 %42, 1
  store i64 %43, i64* %2, align 8
  br label %15

44:                                               ; preds = %15
  ret i32 0
}

declare dso_local i32 @__isoc99_scanf(i8*, ...) #1

declare dso_local i32 @getchar() #1

; Function Attrs: nounwind readonly
declare dso_local i32 @strcmp(i8*, i8*) #2

declare dso_local i32 @printf(i8*, ...) #1


!llvm.module.flags = !{!0}
!llvm.ident = !{!1}

!0 = !{i32 1, !"wchar_size", i32 4}
!1 = !{!"clang version 10.0.0-4ubuntu1 "}
